(dp0
I1
(dp1
S'times_late'
p2
(lp3
I0
aI0
aI0
aI0
asS'scores'
p4
(lp5
(lp6
I0
aI5
aI0
aI1
aa(lp7
I2
aI0
aI0
aI1
aa(lp8
I9
aI7
aI0
aI6
aa(lp9
I9
aI7
aI2
aI0
aasS'ms_per_move'
p10
(lp11
F0.02076650383378828
aF0.020441972641717817
aF0.03028485558385538
aF0.031758236517040295
asS'bot_names'
p12
(lp13
S'rand'
p14
aS'bully'
p15
aS'rdeep'
p16
aS'ml'
p17
assI2
(dp18
g2
(lp19
I0
aI0
aI0
aI0
asg4
(lp20
(lp21
I0
aI3
aI1
aI2
aa(lp22
I4
aI0
aI0
aI0
aa(lp23
I8
aI8
aI0
aI6
aa(lp24
I7
aI6
aI2
aI0
aasg10
(lp25
F0.01898599630509602
aF0.01901111565934885
aF0.029474629261340316
aF0.03357033636436526
asg12
(lp26
S'rand'
p27
aS'bully'
p28
aS'rdeep'
p29
aS'ml'
p30
assI3
(dp31
g2
(lp32
I0
aI0
aI0
aI0
asg4
(lp33
(lp34
I0
aI4
aI1
aI1
aa(lp35
I3
aI0
aI0
aI4
aa(lp36
I10
aI6
aI0
aI5
aa(lp37
I6
aI6
aI4
aI0
aasg10
(lp38
F0.018236584193326074
aF0.01836357689839955
aF0.029538509650537136
aF0.03470539241008392
asg12
(lp39
S'rand'
p40
aS'bully'
p41
aS'rdeep'
p42
aS'ml'
p43
assI4
(dp44
g2
(lp45
I0
aI0
aI0
aI0
asg4
(lp46
(lp47
I0
aI2
aI1
aI3
aa(lp48
I8
aI0
aI0
aI0
aa(lp49
I11
aI9
aI0
aI3
aa(lp50
I6
aI10
aI6
aI0
aasg10
(lp51
F0.018649813779314656
aF0.020339636949070716
aF0.03246899345763644
aF0.03655057510138554
asg12
(lp52
S'rand'
p53
aS'bully'
p54
aS'rdeep'
p55
aS'ml'
p56
assI5
(dp57
g2
(lp58
I0
aI0
aI0
aI0
asg4
(lp59
(lp60
I0
aI3
aI0
aI0
aa(lp61
I4
aI0
aI0
aI0
aa(lp62
I11
aI7
aI0
aI7
aa(lp63
I7
aI7
aI3
aI0
aasg10
(lp64
F0.01839081850665355
aF0.018586501421884588
aF0.030453304464655714
aF0.03316125221148143
asg12
(lp65
S'rand'
p66
aS'bully'
p67
aS'rdeep'
p68
aS'ml'
p69
assI200
(dp70
g2
(lp71
I0
aI0
aI0
aI0
asg4
(lp72
(lp73
I0
aI2
aI1
aI4
aa(lp74
I4
aI0
aI0
aI4
aa(lp75
I9
aI7
aI0
aI7
aa(lp76
I2
aI5
aI1
aI0
aasg10
(lp77
F0.018643355720849138
aF0.018117366109973904
aF0.030395520853817016
aF0.032050223547713204
asg12
(lp78
S'rand'
p79
aS'bully'
p80
aS'rdeep'
p81
aS'ml'
p82
assI10
(dp83
g2
(lp84
I0
aI0
aI0
aI0
asg4
(lp85
(lp86
I0
aI4
aI0
aI3
aa(lp87
I4
aI0
aI2
aI5
aa(lp88
I10
aI5
aI0
aI3
aa(lp89
I7
aI5
aI4
aI0
aasg10
(lp90
F0.01881068719585909
aF0.01855273436982132
aF0.02986175508527031
aF0.03480130829408753
asg12
(lp91
S'rand'
p92
aS'bully'
p93
aS'rdeep'
p94
aS'ml'
p95
assI500
(dp96
g2
(lp97
I0
aI0
aI0
aI0
asg4
(lp98
(lp99
I0
aI5
aI0
aI2
aa(lp100
I1
aI0
aI1
aI3
aa(lp101
I10
aI8
aI0
aI8
aa(lp102
I4
aI5
aI1
aI0
aasg10
(lp103
F0.018810336417522448
aF0.01856773176985974
aF0.03184701253597001
aF0.0365557257326243
asg12
(lp104
S'rand'
p105
aS'bully'
p106
aS'rdeep'
p107
aS'ml'
p108
assI50
(dp109
g2
(lp110
I0
aI0
aI0
aI0
asg4
(lp111
(lp112
I0
aI2
aI1
aI0
aa(lp113
I6
aI0
aI0
aI3
aa(lp114
I7
aI10
aI0
aI5
aa(lp115
I8
aI6
aI3
aI0
aasg10
(lp116
F0.019200267812661955
aF0.01852029011263485
aF0.028228509774682123
aF0.034167168308718555
asg12
(lp117
S'rand'
p118
aS'bully'
p119
aS'rdeep'
p120
aS'ml'
p121
assI20
(dp122
g2
(lp123
I0
aI0
aI0
aI0
asg4
(lp124
(lp125
I0
aI1
aI1
aI1
aa(lp126
I9
aI0
aI2
aI1
aa(lp127
I9
aI5
aI0
aI7
aa(lp128
I9
aI9
aI1
aI0
aasg10
(lp129
F0.01866384244204165
aF0.018036136511672806
aF0.029491716060622498
aF0.03179093318475518
asg12
(lp130
S'rand'
p131
aS'bully'
p132
aS'rdeep'
p133
aS'ml'
p134
assI100
(dp135
g2
(lp136
I0
aI0
aI0
aI0
asg4
(lp137
(lp138
I0
aI5
aI0
aI3
aa(lp139
I5
aI0
aI3
aI3
aa(lp140
I10
aI6
aI0
aI4
aa(lp141
I4
aI3
aI2
aI0
aasg10
(lp142
F0.019254032875362193
aF0.019355743585672595
aF0.029365069445910413
aF0.03492373885548521
asg12
(lp143
S'rand'
p144
aS'bully'
p145
aS'rdeep'
p146
aS'ml'
p147
ass.