(dp0
I1
(dp1
S'times_late'
p2
(lp3
I19
aI21
aI18
aI19
aI23
asS'scores'
p4
(lp5
(lp6
I0
aI18
aI15
aI15
aI15
aa(lp7
I12
aI0
aI9
aI15
aI21
aa(lp8
I15
aI21
aI0
aI18
aI12
aa(lp9
I15
aI15
aI12
aI0
aI21
aa(lp10
I15
aI9
aI18
aI9
aI0
aasS'ms_per_move'
p11
(lp12
F0.005005947748819987
aF0.005517948998345269
aF0.004664325714111328
aF0.005104345745510525
aF0.005808295143975152
asS'bot_names'
p13
(lp14
S'rand'
p15
aS'bully'
p16
aS'rdeep'
p17
aS'ml'
p18
aS'selection_basic'
p19
assI2
(dp20
g2
(lp21
I20
aI20
aI18
aI23
aI19
asg4
(lp22
(lp23
I0
aI15
aI15
aI15
aI15
aa(lp24
I15
aI0
aI15
aI18
aI12
aa(lp25
I15
aI15
aI0
aI24
aI12
aa(lp26
I15
aI12
aI6
aI0
aI18
aa(lp27
I15
aI18
aI18
aI12
aI0
aasg11
(lp28
F0.005727815628051758
aF0.005829816394382053
aF0.0051760991414388025
aF0.0064818064371744795
aF0.005310445361667209
asg13
(lp29
S'rand'
p30
aS'bully'
p31
aS'rdeep'
p32
aS'ml'
p33
aS'selection_basic'
p34
assI100
(dp35
g2
(lp36
I0
aI0
aI0
aI0
aI40
asg4
(lp37
(lp38
I0
aI4
aI0
aI3
aI30
aa(lp39
I14
aI0
aI1
aI5
aI30
aa(lp40
I22
aI18
aI0
aI12
aI30
aa(lp41
I19
aI10
aI2
aI0
aI30
aa(lp42
I0
aI0
aI0
aI0
aI0
aasg11
(lp43
F0.015771937231538156
aF0.016151487919809117
aF0.024177525456524702
aF0.029093076302222718
aF0.10036556985643175
asg13
(lp44
S'rand'
p45
aS'bully'
p46
aS'rdeep'
p47
aS'ml'
p48
aS'selection_basic'
p49
assI5
(dp50
g2
(lp51
I2
aI3
aI32
aI27
aI30
asg4
(lp52
(lp53
I0
aI10
aI30
aI27
aI30
aa(lp54
I15
aI0
aI30
aI30
aI30
aa(lp55
I0
aI0
aI0
aI12
aI12
aa(lp56
I3
aI0
aI18
aI0
aI18
aa(lp57
I0
aI0
aI18
aI12
aI0
aasg11
(lp58
F0.007420757359297819
aF0.009289877301170712
aF0.011198144488864475
aF0.009566566679212782
aF0.01071179707845052
asg13
(lp59
S'rand'
p60
aS'bully'
p61
aS'rdeep'
p62
aS'ml'
p63
aS'selection_basic'
p64
assI200
(dp65
g2
(lp66
I0
aI0
aI0
aI0
aI37
asg4
(lp67
(lp68
I0
aI3
aI1
aI3
aI30
aa(lp69
I16
aI0
aI4
aI10
aI30
aa(lp70
I16
aI9
aI0
aI7
aI30
aa(lp71
I8
aI10
aI8
aI0
aI30
aa(lp72
I0
aI0
aI0
aI0
aI0
aasg11
(lp73
F0.0173053007151084
aF0.016334890865144277
aF0.026097491411935715
aF0.03109152797037962
aF0.18665527237786186
asg13
(lp74
S'rand'
p75
aS'bully'
p76
aS'rdeep'
p77
aS'ml'
p78
aS'selection_basic'
p79
assI10
(dp80
g2
(lp81
I4
aI1
aI33
aI27
aI28
asg4
(lp82
(lp83
I0
aI4
aI30
aI27
aI30
aa(lp84
I18
aI0
aI30
aI27
aI30
aa(lp85
I0
aI0
aI0
aI12
aI9
aa(lp86
I3
aI3
aI18
aI0
aI15
aa(lp87
I0
aI0
aI21
aI15
aI0
aasg11
(lp88
F0.015701135720735716
aF0.014528050212422795
aF0.01779185930887858
aF0.014789459440443251
aF0.015018108155992296
asg13
(lp89
S'rand'
p90
aS'bully'
p91
aS'rdeep'
p92
aS'ml'
p93
aS'selection_basic'
p94
assI50
(dp95
g2
(lp96
I0
aI0
aI0
aI4
aI40
asg4
(lp97
(lp98
I0
aI6
aI3
aI0
aI30
aa(lp99
I13
aI0
aI2
aI3
aI30
aa(lp100
I13
aI13
aI0
aI12
aI30
aa(lp101
I18
aI11
aI8
aI0
aI30
aa(lp102
I0
aI0
aI0
aI0
aI0
aasg11
(lp103
F0.014923110775636409
aF0.016333934632138183
aF0.029874685014576716
aF0.028077018088554374
aF0.05667559835645888
asg13
(lp104
S'rand'
p105
aS'bully'
p106
aS'rdeep'
p107
aS'ml'
p108
aS'selection_basic'
p109
assI20
(dp110
g2
(lp111
I0
aI0
aI7
aI15
aI40
asg4
(lp112
(lp113
I0
aI7
aI15
aI9
aI30
aa(lp114
I11
aI0
aI8
aI20
aI30
aa(lp115
I12
aI11
aI0
aI22
aI30
aa(lp116
I12
aI4
aI4
aI0
aI30
aa(lp117
I0
aI0
aI0
aI0
aI0
aasg11
(lp118
F0.014647402006482322
aF0.015784349395274275
aF0.021782385428326053
aF0.022468665590151697
aF0.02868720160590278
asg13
(lp119
S'rand'
p120
aS'bully'
p121
aS'rdeep'
p122
aS'ml'
p123
aS'selection_basic'
p124
ass.