(lp0
(lp1
(lp2
(lp3
I0
aI0
aI0
aI0
aa(lp4
I0
aI0
aI0
aI0
aaa(lp5
(lp6
I0
aI0
aI0
aI0
aa(lp7
I0
aI0
aI0
aI0
aaa(lp8
(lp9
I0
aI0
aI0
aI0
aa(lp10
I0
aI0
aI0
aI0
aaaa(lp11
(lp12
(lp13
F-4e-05
aI0
aI0
aI0
aa(lp14
F-0.0008623342564661824
aF-0.0005946323963119084
aF-0.0006685227244885534
aI0
aaa(lp15
(lp16
I0
aI0
aI0
aI0
aa(lp17
I0
aI0
aI0
aI0
aaa(lp18
(lp19
F0.001576397694716612
aF3.542708695044316e-05
aF0.00033123153209347467
aI0
aa(lp20
F0.0011432124667922958
aF0.00781816083353208
aF0.0014061743404928106
aI0
aaaa(lp21
(lp22
(lp23
F-0.0005594785383805907
aF-0.000621335675393306
aF-0.0001795440431437916
aI0
aa(lp24
F-0.0017612140925915998
aF-0.0022229240486150085
aF-0.002732486291570945
aI0
aaa(lp25
(lp26
I0
aI0
aI0
aI0
aa(lp27
I0
aI0
aI0
aI0
aaa(lp28
(lp29
F0.018133249983951643
aF0.0019680445392876457
aF0.005787076319033397
aI0
aa(lp30
F0.010105045159758986
aF0.010385311518072465
aF0.05333658179746373
aI0
aaaa.