((lp0
S'rand'
p1
aS'bully'
p2
aS'rdeep'
p3
aS'ml'
p4
a(lp5
(lp6
I0
aI735
aI708
aI780
aa(lp7
I765
aI0
aI783
aI753
aa(lp8
I792
aI717
aI0
aI750
aa(lp9
I720
aI747
aI750
aI0
aa(lp10
F0.008184453670648819
aF0.007960871813145089
aF0.007928732703340815
aF0.008332462545405043
a(lp11
I759
aI733
aI747
aI761
atp12
.