((lp0
S'rand'
p1
aS'bully'
p2
aS'rdeep'
p3
aS'ml'
p4
a(lp5
(lp6
I0
aI771
aI744
aI735
aa(lp7
I729
aI0
aI711
aI714
aa(lp8
I756
aI789
aI0
aI714
aa(lp9
I765
aI786
aI786
aI0
aa(lp10
F0.006981540867622862
aF0.007316260578784537
aF0.007059044343359927
aF0.006869030601166664
a(lp11
I750
aI782
aI747
aI721
atp12
.