((lp0
S'rand'
p1
aS'bully'
p2
aS'rdeep'
p3
aS'ml'
p4
a(lp5
(lp6
I0
aI298
aI553
aI1497
aa(lp7
I640
aI0
aI927
aI1500
aa(lp8
I604
aI291
aI0
aI1284
aa(lp9
I3
aI0
aI216
aI0
aa(lp10
F0.017320900186154026
aF0.017252645203110855
aF0.027818278606453438
aF0.03217961880649235
a(lp11
I1
aI0
aI518
aI1427
atp12
.