((lp0
S'rand'
p1
aS'bully'
p2
aS'rdeep'
p3
aS'ml'
p4
a(lp5
(lp6
I0
aI792
aI741
aI750
aa(lp7
I708
aI0
aI774
aI717
aa(lp8
I759
aI726
aI0
aI672
aa(lp9
I750
aI783
aI828
aI0
aa(lp10
F0.006268510951640758
aF0.006758061970802064
aF0.0066297858002338
aF0.006056029428827002
a(lp11
I739
aI767
aI781
aI713
atp12
.