(dp0
I1
(dp1
S'times_late'
p2
(lp3
I1031
aI1012
aI972
aI982
aI1013
asS'scores'
p4
(lp5
I2919
aI2976
aI3096
aI3066
aI2973
asS'ms_per_move'
p6
(lp7
F0.006855800651447757
aF0.006051801578983138
aF0.006379215678152841
aF0.005939055106247047
aF0.006050020738167808
asS'bot_names'
p8
(lp9
S'rand'
p10
aS'bully'
p11
aS'rdeep'
p12
aS'ml'
p13
aS'selection_basic'
p14
assI2
(dp15
g2
(lp16
I995
aI983
aI1002
aI1018
aI1012
asg4
(lp17
I3027
aI3063
aI3006
aI2958
aI2976
asg6
(lp18
F0.0064992286365028636
aF0.006487642134404882
aF0.0065302774050509885
aF0.006664589900410312
aF0.007294807818589844
asg8
(lp19
S'rand'
p20
aS'bully'
p21
aS'rdeep'
p22
aS'ml'
p23
aS'selection_basic'
p24
assI100
(dp25
g2
(lp26
I0
aI0
aI0
aI0
aI0
asg4
(lp27
I645
aI1066
aI2295
aI2077
aI2398
asg6
(lp28
F0.02044173113166554
aF0.021003998759607245
aF0.03111257006037646
aF0.030159666993105533
aF0.03151346310996
asg8
(lp29
S'rand'
p30
aS'bully'
p31
aS'rdeep'
p32
aS'ml'
p33
aS'selection_basic'
p34
assI5
(dp35
g2
(lp36
I293
aI332
aI1698
aI1660
aI380
asg4
(lp37
I4150
aI4268
aI918
aI1032
aI3969
asg6
(lp38
F0.011178876866672426
aF0.011544758141574362
aF0.01388162591078793
aF0.015396384471325568
aF0.012263777647611185
asg8
(lp39
S'rand'
p40
aS'bully'
p41
aS'rdeep'
p42
aS'ml'
p43
aS'selection_basic'
p44
assI200
(dp45
g2
(lp46
I0
aI0
aI0
aI0
aI0
asg4
(lp47
I617
aI1117
aI2312
aI1979
aI2392
asg6
(lp48
F0.021606801799985968
aF0.04474930526878374
aF0.031263469503685366
aF0.030357525495538055
aF0.03163166242344196
asg8
(lp49
S'rand'
p50
aS'bully'
p51
aS'rdeep'
p52
aS'ml'
p53
aS'selection_basic'
p54
assI10
(dp55
g2
(lp56
I36
aI41
aI1780
aI1727
aI46
asg4
(lp57
I3673
aI4156
aI672
aI831
aI4188
asg6
(lp58
F0.015956850794540334
aF0.016710406602574796
aF0.020172820392682696
aF0.019908559555751836
aF0.01624746256757653
asg8
(lp59
S'rand'
p60
aS'bully'
p61
aS'rdeep'
p62
aS'ml'
p63
aS'selection_basic'
p64
assI50
(dp65
g2
(lp66
I0
aI0
aI49
aI169
aI22
asg4
(lp67
I696
aI1291
aI2524
aI1870
aI2386
asg6
(lp68
F0.0214218406981351
aF0.0231305411757553
aF0.03731172276489428
aF0.03681758246007982
aF0.03621129289181887
asg8
(lp69
S'rand'
p70
aS'bully'
p71
aS'rdeep'
p72
aS'ml'
p73
aS'selection_basic'
p74
assI20
(dp75
g2
(lp76
I0
aI0
aI197
aI714
aI1
asg4
(lp77
I1518
aI2019
aI2734
aI1608
aI2091
asg6
(lp78
F0.0202805483668439
aF0.020458081925301567
aF0.02816709813032457
aF0.030973401752555557
aF0.020275290399401083
asg8
(lp79
S'rand'
p80
aS'bully'
p81
aS'rdeep'
p82
aS'ml'
p83
aS'selection_basic'
p84
ass.