(dp0
I200
(dp1
S'times_late'
p2
(lp3
I0
aI473
asS'scores'
p4
(lp5
(lp6
I0
aI1471
aa(lp7
I2
aI0
aasS'ms_per_move'
p8
(lp9
F0.0224513654671018
aF0.1637329322432045
asS'bot_names'
p10
(lp11
S'rdeep'
p12
aS'selection_reinforcement'
p13
assI100
(dp14
g2
(lp15
I0
aI469
asg4
(lp16
(lp17
I0
aI1478
aa(lp18
I0
aI0
aasg8
(lp19
F0.022674968997535863
aF0.09142787371607476
asg10
(lp20
S'rdeep'
p21
aS'selection_reinforcement'
p22
assI50
(dp23
g2
(lp24
I0
aI467
asg4
(lp25
(lp26
I0
aI1466
aa(lp27
I3
aI0
aasg8
(lp28
F0.021801345611085817
aF0.052990329956646466
asg10
(lp29
S'rdeep'
p30
aS'selection_reinforcement'
p31
assI20
(dp32
g2
(lp33
I22
aI468
asg4
(lp34
(lp35
I0
aI1421
aa(lp36
I67
aI0
aasg8
(lp37
F0.017606426716347396
aF0.027781806105659123
asg10
(lp38
S'rdeep'
p39
aS'selection_reinforcement'
p40
ass.