(dp0
I1
(dp1
S'times_late'
p2
(lp3
I985
aI1023
aI988
aI1004
aI1000
asS'scores'
p4
(lp5
I3045
aI2931
aI3036
aI2988
aI3000
asS'ms_per_move'
p6
(lp7
F0.0064555844761189675
aF0.006456495936671992
aF0.006095680393780258
aF0.006255207989281252
aF0.006245529384089824
asS'bot_names'
p8
(lp9
S'rand'
p10
aS'bully'
p11
aS'rdeep'
p12
aS'ml'
p13
aS'selection_basic'
p14
assI2
(dp15
g2
(lp16
I998
aI994
aI1046
aI1028
aI934
asg4
(lp17
I3006
aI3018
aI2862
aI2916
aI3198
asg6
(lp18
F0.007115212818630913
aF0.007590326703991973
aF0.007460130420408938
aF0.007139916312962101
aF0.0064465359856660225
asg8
(lp19
S'rand'
p20
aS'bully'
p21
aS'rdeep'
p22
aS'ml'
p23
aS'selection_basic'
p24
assI100
(dp25
g2
(lp26
I2
aI1
aI0
aI7
aI0
asg4
(lp27
I699
aI1055
aI2342
aI1987
aI2391
asg6
(lp28
F0.02055865940612416
aF0.020088137913235302
aF0.032943419627662
aF0.03225410672912844
aF0.03184549943580582
asg8
(lp29
S'rand'
p30
aS'bully'
p31
aS'rdeep'
p32
aS'ml'
p33
aS'selection_basic'
p34
assI5
(dp35
g2
(lp36
I726
aI773
aI1162
aI1150
aI1189
asg4
(lp37
I3822
aI3681
aI2514
aI2550
aI2433
asg6
(lp38
F0.008785885686390816
aF0.008754384024184837
aF0.009740851109759172
aF0.00964447197474149
aF0.00999170657702515
asg8
(lp39
S'rand'
p40
aS'bully'
p41
aS'rdeep'
p42
aS'ml'
p43
aS'selection_basic'
p44
assI200
(dp45
g2
(lp46
I0
aI0
aI1
aI3
aI0
asg4
(lp47
I709
aI1069
aI2343
aI1964
aI2320
asg6
(lp48
F0.02093971428162214
aF0.019939483389578638
aF0.031155436879445456
aF0.02956263904863357
aF0.03100737157682456
asg8
(lp49
S'rand'
p50
aS'bully'
p51
aS'rdeep'
p52
aS'ml'
p53
aS'selection_basic'
p54
assI10
(dp55
g2
(lp56
I135
aI123
aI1490
aI1464
aI1447
asg4
(lp57
I4751
aI5071
aI1530
aI1608
aI1659
asg6
(lp58
F0.015445016084843988
aF0.014631877079224425
aF0.01803875504586465
aF0.01893951625300762
aF0.018369527350637384
asg8
(lp59
S'rand'
p60
aS'bully'
p61
aS'rdeep'
p62
aS'ml'
p63
aS'selection_basic'
p64
assI50
(dp65
g2
(lp66
I1
aI1
aI4
aI74
aI3
asg4
(lp67
I686
aI1187
aI2418
aI1929
aI2411
asg6
(lp68
F0.020230877485475616
aF0.020616071650738726
aF0.03307628160984224
aF0.031634568649631024
aF0.03330510636164489
asg8
(lp69
S'rand'
p70
aS'bully'
p71
aS'rdeep'
p72
aS'ml'
p73
aS'selection_basic'
p74
assI20
(dp75
g2
(lp76
I5
aI2
aI542
aI849
aI372
asg4
(lp77
I2034
aI2356
aI2358
aI1598
aI2568
asg6
(lp78
F0.019521415118547943
aF0.02067755870914789
aF0.0292876606885343
aF0.031158324217489416
aF0.029621332144499864
asg8
(lp79
S'rand'
p80
aS'bully'
p81
aS'rdeep'
p82
aS'ml'
p83
aS'selection_basic'
p84
ass.