(dp0
I1
(dp1
S'times_late'
p2
(lp3
I465
aI535
asS'scores'
p4
(lp5
(lp6
I0
aI1605
aa(lp7
I1395
aI0
aasS'ms_per_move'
p8
(lp9
F0.005801166840894018
aF0.006183091038001512
asS'bot_names'
p10
(lp11
S'selection_basic'
p12
aS'selection_weighted_probability'
p13
assI2
(dp14
g2
(lp15
I501
aI499
asg4
(lp16
(lp17
I0
aI1497
aa(lp18
I1503
aI0
aasg8
(lp19
F0.005862594364645952
aF0.006035780716323091
asg10
(lp20
S'selection_basic'
p21
aS'selection_weighted_probability'
p22
assI100
(dp23
g2
(lp24
I0
aI0
asg4
(lp25
(lp26
I0
aI3000
aa(lp27
I0
aI0
aasg8
(lp28
F0.017013646052507107
aF0.018161935006786964
asg10
(lp29
S'selection_basic'
p30
aS'selection_weighted_probability'
p31
assI5
(dp32
g2
(lp33
I60
aI61
asg4
(lp34
(lp35
I0
aI2820
aa(lp36
I180
aI0
aasg8
(lp37
F0.008735509570725188
aF0.014104347267074737
asg10
(lp38
S'selection_basic'
p39
aS'selection_weighted_probability'
p40
assI200
(dp41
g2
(lp42
I0
aI0
asg4
(lp43
(lp44
I0
aI3000
aa(lp45
I0
aI0
aasg8
(lp46
F0.016371813125001217
aF0.017796963274835827
asg10
(lp47
S'selection_basic'
p48
aS'selection_weighted_probability'
p49
assI10
(dp50
g2
(lp51
I6
aI5
asg4
(lp52
(lp53
I0
aI2982
aa(lp54
I18
aI0
aasg8
(lp55
F0.009064922075785563
aF0.017516432883972654
asg10
(lp56
S'selection_basic'
p57
aS'selection_weighted_probability'
p58
assI50
(dp59
g2
(lp60
I0
aI0
asg4
(lp61
(lp62
I0
aI3000
aa(lp63
I0
aI0
aasg8
(lp64
F0.015956176493220224
aF0.01800068885742309
asg10
(lp65
S'selection_basic'
p66
aS'selection_weighted_probability'
p67
assI20
(dp68
g2
(lp69
I0
aI0
asg4
(lp70
(lp71
I0
aI3000
aa(lp72
I0
aI0
aasg8
(lp73
F0.009132518977700118
aF0.016986264678056605
asg10
(lp74
S'selection_basic'
p75
aS'selection_weighted_probability'
p76
ass.