(dp0
I1
(dp1
S'times_late'
p2
(lp3
I720
aI744
aI782
aI754
asS'scores'
p4
(lp5
I2340
aI2268
aI2154
aI2238
asS'ms_per_move'
p6
(lp7
F0.005547389863653386
aF0.005707902477142659
aF0.006029692894600807
aF0.005780658823378543
asS'bot_names'
p8
(lp9
S'rand'
p10
aS'bully'
p11
aS'rdeep'
p12
aS'ml'
p13
assI2
(dp14
g2
(lp15
I739
aI767
aI781
aI713
asg4
(lp16
I2283
aI2199
aI2157
aI2361
asg6
(lp17
F0.006268510951640758
aF0.006758061970802064
aF0.0066297858002338
aF0.006056029428827002
asg8
(lp18
S'rand'
p19
aS'bully'
p20
aS'rdeep'
p21
aS'ml'
p22
assI100
(dp23
g2
(lp24
I0
aI0
aI0
aI2
asg4
(lp25
I574
aI942
aI1889
aI1685
asg6
(lp26
F0.018881095502565514
aF0.01837085895592579
aF0.030999596224995592
aF0.045223730429995536
asg8
(lp27
S'rand'
p28
aS'bully'
p29
aS'rdeep'
p30
aS'ml'
p31
assI5
(dp32
g2
(lp33
I373
aI427
aI1112
aI1024
asg4
(lp34
I3210
aI3157
aI1164
aI1428
asg6
(lp35
F0.00962074308881674
aF0.009897317321972944
aF0.012095519361343789
aF0.011462855687800875
asg8
(lp36
S'rand'
p37
aS'bully'
p38
aS'rdeep'
p39
aS'ml'
p40
assI200
(dp41
g2
(lp42
I0
aI0
aI0
aI4
asg4
(lp43
I605
aI1003
aI1918
aI1666
asg6
(lp44
F0.019858061502527283
aF0.02060038155238545
aF0.03306443877442123
aF0.05481818619426867
asg8
(lp45
S'rand'
p46
aS'bully'
p47
aS'rdeep'
p48
aS'ml'
p49
assI10
(dp50
g2
(lp51
I10
aI8
aI1242
aI1246
asg4
(lp52
I3248
aI3646
aI774
aI762
asg6
(lp53
F0.013028636000385271
aF0.013158912042628285
aF0.017962453213143856
aF0.01989038927969358
asg8
(lp54
S'rand'
p55
aS'bully'
p56
aS'rdeep'
p57
aS'ml'
p58
assI50
(dp59
g2
(lp60
I0
aI0
aI4
aI227
asg4
(lp61
I1013
aI1062
aI2059
aI1333
asg6
(lp62
F0.01945485736865252
aF0.019844273161816146
aF0.03362794203725998
aF0.047255297881873916
asg8
(lp63
S'rand'
p64
aS'bully'
p65
aS'rdeep'
p66
aS'ml'
p67
assI20
(dp68
g2
(lp69
I1
aI0
aI518
aI1427
asg4
(lp70
I2348
aI3067
aI2179
aI219
asg6
(lp71
F0.017320900186154026
aF0.017252645203110855
aF0.027818278606453438
aF0.03217961880649235
asg8
(lp72
S'rand'
p73
aS'bully'
p74
aS'rdeep'
p75
aS'ml'
p76
ass.