(dp0
I1
((lp1
S'rand'
p2
aS'bully'
p3
aS'rdeep'
p4
aS'ml'
p5
a(lp6
(lp7
I0
aI732
aI723
aI729
aa(lp8
I768
aI0
aI720
aI744
aa(lp9
I777
aI780
aI0
aI798
aa(lp10
I771
aI756
aI702
aI0
aa(lp11
F0.0068483303519005475
aF0.006751477401307288
aF0.006365933316819211
aF0.006882171523063741
a(lp12
I772
aI756
aI715
aI757
atp13
sI2
((lp14
S'rand'
p15
aS'bully'
p16
aS'rdeep'
p17
aS'ml'
p18
a(lp19
(lp20
I0
aI732
aI804
aI696
aa(lp21
I768
aI0
aI792
aI774
aa(lp22
I696
aI708
aI0
aI744
aa(lp23
I804
aI726
aI756
aI0
aa(lp24
F0.007441735806617331
aF0.0070800919165002535
aF0.007648162068204677
aF0.007203058676516756
a(lp25
I756
aI722
aI784
aI738
atp26
sI100
((lp27
S'rand'
p28
aS'bully'
p29
aS'rdeep'
p30
aS'ml'
p31
a(lp32
(lp33
I0
aI312
aI100
aI146
aa(lp34
I631
aI0
aI119
aI169
aa(lp35
I887
aI642
aI0
aI463
aa(lp36
I775
aI617
aI306
aI0
aa(lp37
F0.019338859550023315
aF0.01950557873260679
aF0.03074275802805251
aF0.030411613836005234
a(lp38
I0
aI0
aI0
aI4
atp39
sI5
((lp40
S'rand'
p41
aS'bully'
p42
aS'rdeep'
p43
aS'ml'
p44
a(lp45
(lp46
I0
aI645
aI1284
aI1317
aa(lp47
I731
aI0
aI1272
aI1359
aa(lp48
I216
aI228
aI0
aI744
aa(lp49
I183
aI141
aI756
aI0
aa(lp50
F0.009688827154566551
aF0.009698849633695888
aF0.011915585779129191
aF0.012332663098548321
a(lp51
I320
aI319
aI1104
aI1140
atp52
sI200
((lp53
S'rand'
p54
aS'bully'
p55
aS'rdeep'
p56
aS'ml'
p57
a(lp58
(lp59
I0
aI306
aI88
aI182
aa(lp60
I633
aI0
aI133
aI206
aa(lp61
I880
aI665
aI0
aI460
aa(lp62
I730
aI598
aI354
aI0
aa(lp63
F0.019645302257554665
aF0.01985863471886207
aF0.03279106135013659
aF0.03423004022485105
a(lp64
I0
aI0
aI0
aI0
atp65
sI10
((lp66
S'rand'
p67
aS'bully'
p68
aS'rdeep'
p69
aS'ml'
p70
a(lp71
(lp72
I0
aI359
aI1497
aI1500
aa(lp73
I682
aI0
aI1500
aI1500
aa(lp74
I3
aI0
aI0
aI663
aa(lp75
I0
aI0
aI837
aI0
aa(lp76
F0.013302520764619642
aF0.012946473106198406
aF0.018328118197461392
aF0.017775508898792536
a(lp77
I36
aI38
aI1278
aI1221
atp78
sI50
((lp79
S'rand'
p80
aS'bully'
p81
aS'rdeep'
p82
aS'ml'
p83
a(lp84
(lp85
I0
aI280
aI103
aI229
aa(lp86
I657
aI0
aI127
aI235
aa(lp87
I863
aI684
aI0
aI482
aa(lp88
I680
aI582
aI314
aI0
aa(lp89
F0.01931282331343133
aF0.019646263402112604
aF0.030210514309931293
aF0.02965048694632169
a(lp90
I0
aI0
aI1
aI51
atp91
sI20
((lp92
S'rand'
p93
aS'bully'
p94
aS'rdeep'
p95
aS'ml'
p96
a(lp97
(lp98
I0
aI300
aI487
aI633
aa(lp99
I636
aI0
aI359
aI454
aa(lp100
I653
aI563
aI0
aI940
aa(lp101
I485
aI470
aI284
aI0
aa(lp102
F0.019046982614556975
aF0.019070737454341926
aF0.026855901746835723
aF0.029070855045775133
a(lp103
I2
aI1
aI281
aI539
atp104
s.